target datalayout = "e-m:e-p270:32:32-p271:32:32-p272:64:64-i64:64-i128:128-f80:128-n8:16:32:64-S128"
target triple = "x86_64-pc-linux-gnu"

%struct.SDL_AtomicInt = type { i32 }
%struct.SDL_error = type { i32, ptr, i64, ptr, ptr }
%struct.SDL_TLSData = type { i32, [1 x %struct.anon] }
%struct.anon = type { ptr, ptr }
%struct.SDL_Thread = type { i64, i64, i32, %struct.SDL_AtomicInt, %struct.SDL_error, ptr, i64, ptr, ptr, ptr, ptr }

@SDL_tls_allocated = internal global %struct.SDL_AtomicInt zeroinitializer, align 4

; Function Attrs: nounwind uwtable
define internal zeroext i1 @ThreadValid(ptr noundef %0) #0 {
  %2 = alloca ptr, align 8
  store ptr %0, ptr %2, align 8
  %3 = load ptr, ptr %2, align 8
  %4 = call zeroext i1 @SDL_ObjectValid(ptr noundef %3, i32 noundef 10)
  ret i1 %4
}

; Function Attrs: nounwind uwtable
define hidden i32 @SDL_GetThreadState_REAL(ptr noundef %0) #0 {
  %2 = alloca i32, align 4
  %3 = alloca ptr, align 8
  store ptr %0, ptr %3, align 8
  %4 = load ptr, ptr %3, align 8
  %5 = call zeroext i1 @ThreadValid(ptr noundef %4)
  br i1 %5, label %7, label %6

6:                                                ; preds = %1
  store i32 0, ptr %2, align 4
  br label %11

7:                                                ; preds = %1
  %8 = load ptr, ptr %3, align 8
  %9 = getelementptr inbounds nuw %struct.SDL_Thread, ptr %8, i32 0, i32 3
  %10 = call i32 @SDL_GetAtomicInt_REAL(ptr noundef %9)
  store i32 %10, ptr %2, align 4
  br label %11

11:                                               ; preds = %7, %6
  %12 = load i32, ptr %2, align 4
  ret i32 %12
}

; Function Attrs: nounwind uwtable
define hidden void @SDL_CleanupTLS_REAL() #0 {
  %1 = alloca ptr, align 8
  %2 = alloca i32, align 4
  call void @llvm.lifetime.start.p0(i64 8, ptr %1) #6
  %3 = call ptr @SDL_SYS_GetTLSData()
  store ptr %3, ptr %1, align 8
  %4 = load ptr, ptr %1, align 8
  %5 = icmp ne ptr %4, null
  br i1 %5, label %6, label %45

6:                                                ; preds = %0
  call void @llvm.lifetime.start.p0(i64 4, ptr %2) #6
  store i32 0, ptr %2, align 4
  br label %7

7:                                                ; preds = %38, %6
  %8 = load i32, ptr %2, align 4
  %9 = load ptr, ptr %1, align 8
  %10 = getelementptr inbounds nuw %struct.SDL_TLSData, ptr %9, i32 0, i32 0
  %11 = load i32, ptr %10, align 8
  %12 = icmp slt i32 %8, %11
  br i1 %12, label %13, label %41

13:                                               ; preds = %7
  %14 = load ptr, ptr %1, align 8
  %15 = getelementptr inbounds nuw %struct.SDL_TLSData, ptr %14, i32 0, i32 1
  %16 = load i32, ptr %2, align 4
  %17 = sext i32 %16 to i64
  %18 = getelementptr inbounds [1 x %struct.anon], ptr %15, i64 0, i64 %17
  %19 = getelementptr inbounds nuw %struct.anon, ptr %18, i32 0, i32 1
  %20 = load ptr, ptr %19, align 8
  %21 = icmp ne ptr %20, null
  br i1 %21, label %22, label %37

22:                                               ; preds = %13
  %23 = load ptr, ptr %1, align 8
  %24 = getelementptr inbounds nuw %struct.SDL_TLSData, ptr %23, i32 0, i32 1
  %25 = load i32, ptr %2, align 4
  %26 = sext i32 %25 to i64
  %27 = getelementptr inbounds [1 x %struct.anon], ptr %24, i64 0, i64 %26
  %28 = getelementptr inbounds nuw %struct.anon, ptr %27, i32 0, i32 1
  %29 = load ptr, ptr %28, align 8
  %30 = load ptr, ptr %1, align 8
  %31 = getelementptr inbounds nuw %struct.SDL_TLSData, ptr %30, i32 0, i32 1
  %32 = load i32, ptr %2, align 4
  %33 = sext i32 %32 to i64
  %34 = getelementptr inbounds [1 x %struct.anon], ptr %31, i64 0, i64 %33
  %35 = getelementptr inbounds nuw %struct.anon, ptr %34, i32 0, i32 0
  %36 = load ptr, ptr %35, align 8
  call void %29(ptr noundef %36)
  br label %37

37:                                               ; preds = %22, %13
  br label %38

38:                                               ; preds = %37
  %39 = load i32, ptr %2, align 4
  %40 = add nsw i32 %39, 1
  store i32 %40, ptr %2, align 4
  br label %7, !llvm.loop !5

41:                                               ; preds = %7
  %42 = call zeroext i1 @SDL_SYS_SetTLSData(ptr noundef null)
  %43 = load ptr, ptr %1, align 8
  call void @SDL_free_REAL(ptr noundef %43)
  %44 = call i32 @SDL_AddAtomicInt_REAL(ptr noundef @SDL_tls_allocated, i32 noundef -1)
  call void @llvm.lifetime.end.p0(i64 4, ptr %2) #6
  br label %45

45:                                               ; preds = %41, %0
  call void @llvm.lifetime.end.p0(i64 8, ptr %1) #6
  ret void
}

; Function Attrs: nounwind uwtable
define hidden void @SDL_RunThread(ptr noundef %0) #0 {
  %2 = alloca ptr, align 8
  %3 = alloca ptr, align 8
  %4 = alloca ptr, align 8
  %5 = alloca ptr, align 8
  store ptr %0, ptr %2, align 8
  call void @llvm.lifetime.start.p0(i64 8, ptr %3) #6
  %6 = load ptr, ptr %2, align 8
  %7 = getelementptr inbounds nuw %struct.SDL_Thread, ptr %6, i32 0, i32 8
  %8 = load ptr, ptr %7, align 8
  store ptr %8, ptr %3, align 8
  call void @llvm.lifetime.start.p0(i64 8, ptr %4) #6
  %9 = load ptr, ptr %2, align 8
  %10 = getelementptr inbounds nuw %struct.SDL_Thread, ptr %9, i32 0, i32 7
  %11 = load ptr, ptr %10, align 8
  store ptr %11, ptr %4, align 8
  call void @llvm.lifetime.start.p0(i64 8, ptr %5) #6
  %12 = load ptr, ptr %2, align 8
  %13 = getelementptr inbounds nuw %struct.SDL_Thread, ptr %12, i32 0, i32 2
  store ptr %13, ptr %5, align 8
  %14 = load ptr, ptr %2, align 8
  %15 = getelementptr inbounds nuw %struct.SDL_Thread, ptr %14, i32 0, i32 5
  %16 = load ptr, ptr %15, align 8
  call void @SDL_SYS_SetupThread(ptr noundef %16)
  %17 = call i64 @SDL_GetCurrentThreadID_REAL()
  %18 = load ptr, ptr %2, align 8
  %19 = getelementptr inbounds nuw %struct.SDL_Thread, ptr %18, i32 0, i32 0
  store i64 %17, ptr %19, align 8
  %20 = load ptr, ptr %4, align 8
  %21 = load ptr, ptr %3, align 8
  %22 = call i32 %20(ptr noundef %21)
  %23 = load ptr, ptr %5, align 8
  store i32 %22, ptr %23, align 4
  call void @SDL_CleanupTLS_REAL()
  %24 = load ptr, ptr %2, align 8
  %25 = getelementptr inbounds nuw %struct.SDL_Thread, ptr %24, i32 0, i32 3
  %26 = call zeroext i1 @SDL_CompareAndSwapAtomicInt_REAL(ptr noundef %25, i32 noundef 1, i32 noundef 3)
  br i1 %26, label %37, label %27

27:                                               ; preds = %1
  %28 = load ptr, ptr %2, align 8
  %29 = call i32 @SDL_GetThreadState_REAL(ptr noundef %28)
  %30 = icmp eq i32 %29, 2
  br i1 %30, label %31, label %36

31:                                               ; preds = %27
  %32 = load ptr, ptr %2, align 8
  %33 = getelementptr inbounds nuw %struct.SDL_Thread, ptr %32, i32 0, i32 5
  %34 = load ptr, ptr %33, align 8
  call void @SDL_free_REAL(ptr noundef %34)
  %35 = load ptr, ptr %2, align 8
  call void @SDL_free_REAL(ptr noundef %35)
  br label %36

36:                                               ; preds = %31, %27
  br label %37

37:                                               ; preds = %36, %1
  call void @llvm.lifetime.end.p0(i64 8, ptr %5) #6
  call void @llvm.lifetime.end.p0(i64 8, ptr %4) #6
  call void @llvm.lifetime.end.p0(i64 8, ptr %3) #6
  ret void
}