; Function Attrs: nounwind uwtable
define hidden void @SDL_RunThread(ptr noundef initializes((0, 8), (16, 20)) %0) local_unnamed_addr #0 {
  %2 = getelementptr inbounds nuw i8, ptr %0, i64 88
  %3 = load ptr, ptr %2, align 8
  %4 = getelementptr inbounds nuw i8, ptr %0, i64 80
  %5 = load ptr, ptr %4, align 8
  %6 = getelementptr inbounds nuw i8, ptr %0, i64 16
  %7 = getelementptr inbounds nuw i8, ptr %0, i64 64
  %8 = load ptr, ptr %7, align 8
  tail call void @SDL_SYS_SetupThread(ptr noundef %8) #6
  %9 = tail call i64 @SDL_GetCurrentThreadID_REAL() #6
  store i64 %9, ptr %0, align 8
  %10 = tail call i32 %5(ptr noundef %3) #6
  store i32 %10, ptr %6, align 4
  %11 = tail call ptr @SDL_SYS_GetTLSData() #6
  %.not.i = icmp eq ptr %11, null
  br i1 %.not.i, label %SDL_CleanupTLS_REAL.exit, label %.preheader.i

.preheader.i:                                     ; preds = %1
  %12 = load i32, ptr %11, align 8
  %13 = icmp sgt i32 %12, 0
  br i1 %13, label %.lr.ph.i, label %._crit_edge.i

.lr.ph.i:                                         ; preds = %.preheader.i
  %14 = getelementptr inbounds nuw i8, ptr %11, i64 8
  br label %15

15:                                               ; preds = %22, %.lr.ph.i
  %16 = phi i32 [ %12, %.lr.ph.i ], [ %23, %22 ]
  %indvars.iv.i = phi i64 [ 0, %.lr.ph.i ], [ %indvars.iv.next.i, %22 ]
  %17 = getelementptr inbounds nuw [1 x %struct.anon], ptr %14, i64 0, i64 %indvars.iv.i
  %18 = getelementptr inbounds nuw i8, ptr %17, i64 8
  %19 = load ptr, ptr %18, align 8
  %.not12.i = icmp eq ptr %19, null
  br i1 %.not12.i, label %22, label %20

20:                                               ; preds = %15
  %21 = load ptr, ptr %17, align 8
  tail call void %19(ptr noundef %21) #6
  %.pre.i = load i32, ptr %11, align 8
  br label %22

22:                                               ; preds = %20, %15
  %23 = phi i32 [ %16, %15 ], [ %.pre.i, %20 ]
  %indvars.iv.next.i = add nuw nsw i64 %indvars.iv.i, 1
  %24 = sext i32 %23 to i64
  %25 = icmp slt i64 %indvars.iv.next.i, %24
  br i1 %25, label %15, label %._crit_edge.i, !llvm.loop !3

._crit_edge.i:                                    ; preds = %22, %.preheader.i
  %26 = tail call zeroext i1 @SDL_SYS_SetTLSData(ptr noundef null) #6
  tail call void @SDL_free_REAL(ptr noundef nonnull %11) #6
  %27 = tail call i32 @SDL_AddAtomicInt_REAL(ptr noundef nonnull @SDL_tls_allocated, i32 noundef -1) #6
  br label %SDL_CleanupTLS_REAL.exit

SDL_CleanupTLS_REAL.exit:                         ; preds = %1, %._crit_edge.i
  %28 = getelementptr inbounds nuw i8, ptr %0, i64 20
  %29 = tail call zeroext i1 @SDL_CompareAndSwapAtomicInt_REAL(ptr noundef nonnull %28, i32 noundef 1, i32 noundef 3) #6
  br i1 %29, label %SDL_GetThreadState_REAL.exit.thread, label %30

30:                                               ; preds = %SDL_CleanupTLS_REAL.exit
  %31 = tail call zeroext i1 @SDL_ObjectValid(ptr noundef nonnull %0, i32 noundef 10) #6
  br i1 %31, label %SDL_GetThreadState_REAL.exit, label %SDL_GetThreadState_REAL.exit.thread

SDL_GetThreadState_REAL.exit:                     ; preds = %30
  %32 = tail call i32 @SDL_GetAtomicInt_REAL(ptr noundef nonnull %28) #6
  %33 = icmp eq i32 %32, 2
  br i1 %33, label %34, label %SDL_GetThreadState_REAL.exit.thread

34:                                               ; preds = %SDL_GetThreadState_REAL.exit
  %35 = load ptr, ptr %7, align 8
  tail call void @SDL_free_REAL(ptr noundef %35) #6
  tail call void @SDL_free_REAL(ptr noundef nonnull %0) #6
  br label %SDL_GetThreadState_REAL.exit.thread

SDL_GetThreadState_REAL.exit.thread:              ; preds = %30, %SDL_GetThreadState_REAL.exit, %34, %SDL_CleanupTLS_REAL.exit
  ret void
}